#include <math.h>
#include <stdio.h>
#include <stdlib.h>
#include <string.h>

int main(){
    int n,k,i,m;
    scanf("%d %d",&n,&k);
    int sz[n];
    for(i=0;i<n;i++){
            scanf("%d ",&sz[i]);
    }
    for(i=0;i<n-1;i++){
            for(m=i+1;m<n;m++){
                   if(sz[i]+sz[m]==k){
                             printf("yes");
                             break;
                   }
                   if(i==n-2&&m==n-1){
                             printf("no");
                             break;
                   }
            }
            if(sz[i]+sz[m]==k){
                             break;
            } 
            if(i==n-2&&m==n-1){
                             break;
            }
      
    }
    return 0;
}

            
            
